target datalayout = "e-m:e-p270:32:32-p271:32:32-p272:64:64-i64:64-i128:128-f80:128-n8:16:32:64-S128"
target triple = "x86_64-pc-linux-gnu"

%struct.Vec_Int_t_ = type { i32, i32, ptr }
%struct.Vec_Wrd_t_ = type { i32, i32, ptr }

; Function Attrs: inlinehint nounwind uwtable
define internal void @Abc_InfoXorBit(ptr noundef %0, i32 noundef %1) #2 {
  %3 = alloca ptr, align 8
  %4 = alloca i32, align 4
  store ptr %0, ptr %3, align 8, !tbaa !61
  store i32 %1, ptr %4, align 4, !tbaa !10
  %5 = load i32, ptr %4, align 4, !tbaa !10
  %6 = and i32 %5, 31
  %7 = shl i32 1, %6
  %8 = load ptr, ptr %3, align 8, !tbaa !61
  %9 = load i32, ptr %4, align 4, !tbaa !10
  %10 = ashr i32 %9, 5
  %11 = sext i32 %10 to i64
  %12 = getelementptr inbounds i32, ptr %8, i64 %11
  %13 = load i32, ptr %12, align 4, !tbaa !10
  %14 = xor i32 %13, %7
  store i32 %14, ptr %12, align 4, !tbaa !10
  ret void
}

; Function Attrs: inlinehint nounwind uwtable
define internal void @Abc_InfoSetBit(ptr noundef %0, i32 noundef %1) #2 {
  %3 = alloca ptr, align 8
  %4 = alloca i32, align 4
  store ptr %0, ptr %3, align 8, !tbaa !61
  store i32 %1, ptr %4, align 4, !tbaa !10
  %5 = load i32, ptr %4, align 4, !tbaa !10
  %6 = and i32 %5, 31
  %7 = shl i32 1, %6
  %8 = load ptr, ptr %3, align 8, !tbaa !61
  %9 = load i32, ptr %4, align 4, !tbaa !10
  %10 = ashr i32 %9, 5
  %11 = sext i32 %10 to i64
  %12 = getelementptr inbounds i32, ptr %8, i64 %11
  %13 = load i32, ptr %12, align 4, !tbaa !10
  %14 = or i32 %13, %7
  store i32 %14, ptr %12, align 4, !tbaa !10
  ret void
}

; Function Attrs: inlinehint nounwind uwtable
define internal i32 @Abc_LitIsCompl(i32 noundef %0) #2 {
  %2 = alloca i32, align 4
  store i32 %0, ptr %2, align 4, !tbaa !10
  %3 = load i32, ptr %2, align 4, !tbaa !10
  %4 = and i32 %3, 1
  ret i32 %4
}

; Function Attrs: inlinehint nounwind uwtable
define internal i32 @Abc_InfoHasBit(ptr noundef %0, i32 noundef %1) #2 {
  %3 = alloca ptr, align 8
  %4 = alloca i32, align 4
  store ptr %0, ptr %3, align 8, !tbaa !61
  store i32 %1, ptr %4, align 4, !tbaa !10
  %5 = load ptr, ptr %3, align 8, !tbaa !61
  %6 = load i32, ptr %4, align 4, !tbaa !10
  %7 = ashr i32 %6, 5
  %8 = sext i32 %7 to i64
  %9 = getelementptr inbounds i32, ptr %5, i64 %8
  %10 = load i32, ptr %9, align 4, !tbaa !10
  %11 = load i32, ptr %4, align 4, !tbaa !10
  %12 = and i32 %11, 31
  %13 = shl i32 1, %12
  %14 = and i32 %10, %13
  %15 = icmp ugt i32 %14, 0
  %16 = zext i1 %15 to i32
  ret i32 %16
}

; Function Attrs: inlinehint nounwind uwtable
define internal i32 @Vec_WrdSize(ptr noundef %0) #2 {
  %2 = alloca ptr, align 8
  store ptr %0, ptr %2, align 8, !tbaa !133
  %3 = load ptr, ptr %2, align 8, !tbaa !133
  %4 = getelementptr inbounds nuw %struct.Vec_Wrd_t_, ptr %3, i32 0, i32 1
  %5 = load i32, ptr %4, align 4, !tbaa !139
  ret i32 %5
}

; Function Attrs: inlinehint nounwind uwtable
define internal ptr @Vec_WrdEntryP(ptr noundef %0, i32 noundef %1) #2 {
  %3 = alloca ptr, align 8
  %4 = alloca i32, align 4
  store ptr %0, ptr %3, align 8, !tbaa !133
  store i32 %1, ptr %4, align 4, !tbaa !10
  %5 = load ptr, ptr %3, align 8, !tbaa !133
  %6 = getelementptr inbounds nuw %struct.Vec_Wrd_t_, ptr %5, i32 0, i32 2
  %7 = load ptr, ptr %6, align 8, !tbaa !137
  %8 = load i32, ptr %4, align 4, !tbaa !10
  %9 = sext i32 %8 to i64
  %10 = getelementptr inbounds i64, ptr %7, i64 %9
  ret ptr %10
}

; Function Attrs: inlinehint nounwind uwtable
define internal i32 @Abc_Lit2Var(i32 noundef %0) #2 {
  %2 = alloca i32, align 4
  store i32 %0, ptr %2, align 4, !tbaa !10
  %3 = load i32, ptr %2, align 4, !tbaa !10
  %4 = ashr i32 %3, 1
  ret i32 %4
}

; Function Attrs: inlinehint nounwind uwtable
define internal i32 @Vec_IntEntry(ptr noundef %0, i32 noundef %1) #2 {
  %3 = alloca ptr, align 8
  %4 = alloca i32, align 4
  store ptr %0, ptr %3, align 8, !tbaa !35
  store i32 %1, ptr %4, align 4, !tbaa !10
  %5 = load ptr, ptr %3, align 8, !tbaa !35
  %6 = getelementptr inbounds nuw %struct.Vec_Int_t_, ptr %5, i32 0, i32 2
  %7 = load ptr, ptr %6, align 8, !tbaa !52
  %8 = load i32, ptr %4, align 4, !tbaa !10
  %9 = sext i32 %8 to i64
  %10 = getelementptr inbounds i32, ptr %7, i64 %9
  %11 = load i32, ptr %10, align 4, !tbaa !10
  ret i32 %11
}

; Function Attrs: inlinehint nounwind uwtable
define internal i32 @Vec_IntSize(ptr noundef %0) #2 {
  %2 = alloca ptr, align 8
  store ptr %0, ptr %2, align 8, !tbaa !35
  %3 = load ptr, ptr %2, align 8, !tbaa !35
  %4 = getelementptr inbounds nuw %struct.Vec_Int_t_, ptr %3, i32 0, i32 1
  %5 = load i32, ptr %4, align 4, !tbaa !45
  ret i32 %5
}

; Function Attrs: nounwind uwtable
define i32 @Min_ManBitPackTry(ptr noundef %0, i32 noundef %1, i32 noundef %2, ptr noundef %3) #0 {
  %5 = alloca i32, align 4
  %6 = alloca ptr, align 8
  %7 = alloca i32, align 4
  %8 = alloca i32, align 4
  %9 = alloca ptr, align 8
  %10 = alloca i32, align 4
  %11 = alloca i32, align 4
  %12 = alloca ptr, align 8
  %13 = alloca ptr, align 8
  %14 = alloca i32, align 4
  %15 = alloca ptr, align 8
  %16 = alloca ptr, align 8
  store ptr %0, ptr %6, align 8, !tbaa !133
  store i32 %1, ptr %7, align 4, !tbaa !10
  store i32 %2, ptr %8, align 4, !tbaa !10
  store ptr %3, ptr %9, align 8, !tbaa !35
  call void @llvm.lifetime.start.p0(i64 4, ptr %10) #13
  call void @llvm.lifetime.start.p0(i64 4, ptr %11) #13
  store i32 0, ptr %10, align 4, !tbaa !10
  br label %17

17:                                               ; preds = %57, %4
  %18 = load i32, ptr %10, align 4, !tbaa !10
  %19 = load ptr, ptr %9, align 8, !tbaa !35
  %20 = call i32 @Vec_IntSize(ptr noundef %19)
  %21 = icmp slt i32 %18, %20
  br i1 %21, label %22, label %26

22:                                               ; preds = %17
  %23 = load ptr, ptr %9, align 8, !tbaa !35
  %24 = load i32, ptr %10, align 4, !tbaa !10
  %25 = call i32 @Vec_IntEntry(ptr noundef %23, i32 noundef %24)
  store i32 %25, ptr %11, align 4, !tbaa !10
  br label %26

26:                                               ; preds = %22, %17
  %27 = phi i1 [ false, %17 ], [ true, %22 ]
  br i1 %27, label %28, label %60

28:                                               ; preds = %26
  call void @llvm.lifetime.start.p0(i64 8, ptr %12) #13
  %29 = load ptr, ptr %6, align 8, !tbaa !133
  %30 = load i32, ptr %7, align 4, !tbaa !10
  %31 = load i32, ptr %11, align 4, !tbaa !10
  %32 = sub nsw i32 %31, 2
  %33 = call i32 @Abc_Lit2Var(i32 noundef %32)
  %34 = mul nsw i32 %30, %33
  %35 = call ptr @Vec_WrdEntryP(ptr noundef %29, i32 noundef %34)
  store ptr %35, ptr %12, align 8, !tbaa !134
  call void @llvm.lifetime.start.p0(i64 8, ptr %13) #13
  %36 = load ptr, ptr %12, align 8, !tbaa !134
  %37 = load ptr, ptr %6, align 8, !tbaa !133
  %38 = call i32 @Vec_WrdSize(ptr noundef %37)
  %39 = sext i32 %38 to i64
  %40 = getelementptr inbounds i64, ptr %36, i64 %39
  store ptr %40, ptr %13, align 8, !tbaa !134
  %41 = load ptr, ptr %13, align 8, !tbaa !134
  %42 = load i32, ptr %8, align 4, !tbaa !10
  %43 = call i32 @Abc_InfoHasBit(ptr noundef %41, i32 noundef %42)
  %44 = icmp ne i32 %43, 0
  br i1 %44, label %45, label %53

45:                                               ; preds = %28
  %46 = load ptr, ptr %12, align 8, !tbaa !134
  %47 = load i32, ptr %8, align 4, !tbaa !10
  %48 = call i32 @Abc_InfoHasBit(ptr noundef %46, i32 noundef %47)
  %49 = load i32, ptr %11, align 4, !tbaa !10
  %50 = call i32 @Abc_LitIsCompl(i32 noundef %49)
  %51 = icmp eq i32 %48, %50
  br i1 %51, label %52, label %53

52:                                               ; preds = %45
  store i32 0, ptr %5, align 4
  store i32 1, ptr %14, align 4
  br label %54

53:                                               ; preds = %45, %28
  store i32 0, ptr %14, align 4
  br label %54

54:                                               ; preds = %53, %52
  call void @llvm.lifetime.end.p0(i64 8, ptr %13) #13
  call void @llvm.lifetime.end.p0(i64 8, ptr %12) #13
  %55 = load i32, ptr %14, align 4
  switch i32 %55, label %101 [
    i32 0, label %56
  ]

56:                                               ; preds = %54
  br label %57

57:                                               ; preds = %56
  %58 = load i32, ptr %10, align 4, !tbaa !10
  %59 = add nsw i32 %58, 1
  store i32 %59, ptr %10, align 4, !tbaa !10
  br label %17, !llvm.loop !135

60:                                               ; preds = %26
  store i32 0, ptr %10, align 4, !tbaa !10
  br label %61

61:                                               ; preds = %97, %60
  %62 = load i32, ptr %10, align 4, !tbaa !10
  %63 = load ptr, ptr %9, align 8, !tbaa !35
  %64 = call i32 @Vec_IntSize(ptr noundef %63)
  %65 = icmp slt i32 %62, %64
  br i1 %65, label %66, label %70

66:                                               ; preds = %61
  %67 = load ptr, ptr %9, align 8, !tbaa !35
  %68 = load i32, ptr %10, align 4, !tbaa !10
  %69 = call i32 @Vec_IntEntry(ptr noundef %67, i32 noundef %68)
  store i32 %69, ptr %11, align 4, !tbaa !10
  br label %70

70:                                               ; preds = %66, %61
  %71 = phi i1 [ false, %61 ], [ true, %66 ]
  br i1 %71, label %72, label %100

72:                                               ; preds = %70
  call void @llvm.lifetime.start.p0(i64 8, ptr %15) #13
  %73 = load ptr, ptr %6, align 8, !tbaa !133
  %74 = load i32, ptr %7, align 4, !tbaa !10
  %75 = load i32, ptr %11, align 4, !tbaa !10
  %76 = sub nsw i32 %75, 2
  %77 = call i32 @Abc_Lit2Var(i32 noundef %76)
  %78 = mul nsw i32 %74, %77
  %79 = call ptr @Vec_WrdEntryP(ptr noundef %73, i32 noundef %78)
  store ptr %79, ptr %15, align 8, !tbaa !134
  call void @llvm.lifetime.start.p0(i64 8, ptr %16) #13
  %80 = load ptr, ptr %15, align 8, !tbaa !134
  %81 = load ptr, ptr %6, align 8, !tbaa !133
  %82 = call i32 @Vec_WrdSize(ptr noundef %81)
  %83 = sext i32 %82 to i64
  %84 = getelementptr inbounds i64, ptr %80, i64 %83
  store ptr %84, ptr %16, align 8, !tbaa !134
  %85 = load ptr, ptr %16, align 8, !tbaa !134
  %86 = load i32, ptr %8, align 4, !tbaa !10
  call void @Abc_InfoSetBit(ptr noundef %85, i32 noundef %86)
  %87 = load ptr, ptr %15, align 8, !tbaa !134
  %88 = load i32, ptr %8, align 4, !tbaa !10
  %89 = call i32 @Abc_InfoHasBit(ptr noundef %87, i32 noundef %88)
  %90 = load i32, ptr %11, align 4, !tbaa !10
  %91 = call i32 @Abc_LitIsCompl(i32 noundef %90)
  %92 = icmp eq i32 %89, %91
  br i1 %92, label %93, label %96

93:                                               ; preds = %72
  %94 = load ptr, ptr %15, align 8, !tbaa !134
  %95 = load i32, ptr %8, align 4, !tbaa !10
  call void @Abc_InfoXorBit(ptr noundef %94, i32 noundef %95)
  br label %96

96:                                               ; preds = %93, %72
  call void @llvm.lifetime.end.p0(i64 8, ptr %16) #13
  call void @llvm.lifetime.end.p0(i64 8, ptr %15) #13
  br label %97

97:                                               ; preds = %96
  %98 = load i32, ptr %10, align 4, !tbaa !10
  %99 = add nsw i32 %98, 1
  store i32 %99, ptr %10, align 4, !tbaa !10
  br label %61, !llvm.loop !136

100:                                              ; preds = %70
  store i32 1, ptr %5, align 4
  store i32 1, ptr %14, align 4
  br label %101

101:                                              ; preds = %100, %54
  call void @llvm.lifetime.end.p0(i64 4, ptr %11) #13
  call void @llvm.lifetime.end.p0(i64 4, ptr %10) #13
  %102 = load i32, ptr %5, align 4
  ret i32 %102
}