; Function Attrs: nofree norecurse nosync nounwind memory(readwrite, inaccessiblemem: none) uwtable
define range(i32 0, 2) i32 @Min_ManBitPackTry(ptr noundef readonly captures(none) %0, i32 noundef %1, i32 noundef %2, ptr noundef readonly captures(none) %3) local_unnamed_addr #6 {
  %5 = getelementptr i8, ptr %3, i64 4
  %.val40 = load i32, ptr %5, align 4, !tbaa !30
  %6 = icmp sgt i32 %.val40, 0
  br i1 %6, label %.lr.ph, label %.critedge2

.lr.ph:                                           ; preds = %4
  %7 = getelementptr i8, ptr %3, i64 8
  %.val42 = load ptr, ptr %7, align 8, !tbaa !32
  %8 = getelementptr i8, ptr %0, i64 8
  %.val43 = load ptr, ptr %8, align 8, !tbaa !136
  %9 = getelementptr i8, ptr %0, i64 4
  %.val45 = load i32, ptr %9, align 4, !tbaa !138
  %10 = sext i32 %.val45 to i64
  %11 = ashr i32 %2, 5
  %12 = sext i32 %11 to i64
  %13 = and i32 %2, 31
  %14 = shl nuw i32 1, %13
  %wide.trip.count = zext nneg i32 %.val40 to i64
  br label %22

.lr.ph52:                                         ; preds = %.critedge39
  %15 = getelementptr i8, ptr %3, i64 8
  %.val41 = load ptr, ptr %15, align 8, !tbaa !32
  %16 = getelementptr i8, ptr %0, i64 8
  %.val44 = load ptr, ptr %16, align 8, !tbaa !136
  %17 = getelementptr i8, ptr %0, i64 4
  %18 = and i32 %2, 31
  %19 = shl nuw i32 1, %18
  %20 = ashr i32 %2, 5
  %21 = sext i32 %20 to i64
  br label %41

22:                                               ; preds = %.lr.ph, %.critedge39
  %indvars.iv = phi i64 [ 0, %.lr.ph ], [ %indvars.iv.next, %.critedge39 ]
  %23 = getelementptr inbounds nuw i32, ptr %.val42, i64 %indvars.iv
  %24 = load i32, ptr %23, align 4, !tbaa !35
  %25 = add nsw i32 %24, -2
  %26 = ashr i32 %25, 1
  %27 = mul nsw i32 %26, %1
  %28 = sext i32 %27 to i64
  %29 = getelementptr inbounds i64, ptr %.val43, i64 %28
  %30 = getelementptr inbounds i64, ptr %29, i64 %10
  %31 = getelementptr inbounds i32, ptr %30, i64 %12
  %32 = load i32, ptr %31, align 4, !tbaa !35
  %33 = and i32 %32, %14
  %.not = icmp eq i32 %33, 0
  br i1 %.not, label %.critedge39, label %34

34:                                               ; preds = %22
  %35 = getelementptr inbounds i32, ptr %29, i64 %12
  %36 = load i32, ptr %35, align 4, !tbaa !35
  %37 = lshr i32 %36, %13
  %38 = xor i32 %37, %24
  %39 = and i32 %38, 1
  %40 = icmp eq i32 %39, 0
  br i1 %40, label %.critedge2, label %.critedge39

.critedge39:                                      ; preds = %34, %22
  %indvars.iv.next = add nuw nsw i64 %indvars.iv, 1
  %exitcond.not = icmp eq i64 %indvars.iv.next, %wide.trip.count
  br i1 %exitcond.not, label %.lr.ph52, label %22, !llvm.loop !139

41:                                               ; preds = %.lr.ph52, %.critedge
  %indvars.iv55 = phi i64 [ 0, %.lr.ph52 ], [ %indvars.iv.next56, %.critedge ]
  %42 = getelementptr inbounds nuw i32, ptr %.val41, i64 %indvars.iv55
  %43 = load i32, ptr %42, align 4, !tbaa !35
  %44 = add nsw i32 %43, -2
  %45 = ashr i32 %44, 1
  %46 = mul nsw i32 %45, %1
  %47 = sext i32 %46 to i64
  %48 = getelementptr inbounds i64, ptr %.val44, i64 %47
  %.val46 = load i32, ptr %17, align 4, !tbaa !138
  %49 = sext i32 %.val46 to i64
  %50 = getelementptr inbounds i64, ptr %48, i64 %49
  %51 = getelementptr inbounds i32, ptr %50, i64 %21
  %52 = load i32, ptr %51, align 4, !tbaa !35
  %53 = or i32 %52, %19
  store i32 %53, ptr %51, align 4, !tbaa !35
  %54 = getelementptr inbounds i32, ptr %48, i64 %21
  %55 = load i32, ptr %54, align 4, !tbaa !35
  %56 = lshr i32 %55, %18
  %57 = xor i32 %56, %43
  %58 = and i32 %57, 1
  %59 = icmp eq i32 %58, 0
  br i1 %59, label %60, label %.critedge

60:                                               ; preds = %41
  %61 = xor i32 %55, %19
  store i32 %61, ptr %54, align 4, !tbaa !35
  br label %.critedge

.critedge:                                        ; preds = %60, %41
  %indvars.iv.next56 = add nuw nsw i64 %indvars.iv55, 1
  %.val = load i32, ptr %5, align 4, !tbaa !30
  %62 = sext i32 %.val to i64
  %63 = icmp slt i64 %indvars.iv.next56, %62
  br i1 %63, label %41, label %.critedge2, !llvm.loop !140

.critedge2:                                       ; preds = %34, %.critedge, %4
  %.2 = phi i32 [ 1, %4 ], [ 1, %.critedge ], [ 0, %34 ]
  ret i32 %.2
}